target datalayout = "e-m:e-p270:32:32-p271:32:32-p272:64:64-i64:64-i128:128-f80:128-n8:16:32:64-S128"
target triple = "x86_64-pc-linux-gnu"

%struct.tls_buffer_st = type { ptr, i64, i64, i64, i64, i32, i32 }
%struct.tls_rl_record_st = type { i32, i32, i64, i64, i64, ptr, ptr, ptr, i16, [8 x i8] }
%struct.ossl_record_layer_st = type { ptr, ptr, i32, i32, i32, i32, i32, ptr, i16, ptr, ptr, ptr, i64, i32, [33 x %struct.tls_buffer_st], i64, i64, %struct.tls_buffer_st, [32 x %struct.tls_rl_record_st], i64, i64, i64, i32, ptr, i64, [8 x i8], i32, i32, i64, i32, ptr, ptr, i64, ptr, ptr, i32, i32, i32, i64, i64, i64, [64 x i8], i32, i32, i32, ptr, ptr, i32, i32, i64, ptr, ptr, %struct.dtls_bitmap_st, %struct.dtls_bitmap_st, i32, ptr, ptr, ptr, ptr, ptr, i64, ptr }
%struct.dtls_bitmap_st = type { i64, [8 x i8] }

@.str = private unnamed_addr constant [43 x i8] c"../openssl/ssl/record/methods/tls_common.c\00", align 1
@__func__.tls_release_record = private unnamed_addr constant [19 x i8] c"tls_release_record\00", align 1

; Function Attrs: nounwind uwtable
define internal i32 @tls_release_read_buffer(ptr noundef %0) #0 {
  %2 = alloca ptr, align 8
  %3 = alloca ptr, align 8
  store ptr %0, ptr %2, align 8, !tbaa !16
  call void @llvm.lifetime.start.p0(i64 8, ptr %3) #10
  %4 = load ptr, ptr %2, align 8, !tbaa !16
  %5 = getelementptr inbounds nuw %struct.ossl_record_layer_st, ptr %4, i32 0, i32 17
  store ptr %5, ptr %3, align 8, !tbaa !3
  %6 = load ptr, ptr %2, align 8, !tbaa !16
  %7 = getelementptr inbounds nuw %struct.ossl_record_layer_st, ptr %6, i32 0, i32 12
  %8 = load i64, ptr %7, align 8, !tbaa !47
  %9 = and i64 %8, 2
  %10 = icmp ne i64 %9, 0
  br i1 %10, label %11, label %18

11:                                               ; preds = %1
  %12 = load ptr, ptr %3, align 8, !tbaa !3
  %13 = getelementptr inbounds nuw %struct.tls_buffer_st, ptr %12, i32 0, i32 0
  %14 = load ptr, ptr %13, align 8, !tbaa !8
  %15 = load ptr, ptr %3, align 8, !tbaa !3
  %16 = getelementptr inbounds nuw %struct.tls_buffer_st, ptr %15, i32 0, i32 2
  %17 = load i64, ptr %16, align 8, !tbaa !48
  call void @OPENSSL_cleanse(ptr noundef %14, i64 noundef %17)
  br label %18

18:                                               ; preds = %11, %1
  %19 = load ptr, ptr %3, align 8, !tbaa !3
  %20 = getelementptr inbounds nuw %struct.tls_buffer_st, ptr %19, i32 0, i32 0
  %21 = load ptr, ptr %20, align 8, !tbaa !8
  call void @CRYPTO_free(ptr noundef %21, ptr noundef @.str, i32 noundef 284)
  %22 = load ptr, ptr %3, align 8, !tbaa !3
  %23 = getelementptr inbounds nuw %struct.tls_buffer_st, ptr %22, i32 0, i32 0
  store ptr null, ptr %23, align 8, !tbaa !8
  %24 = load ptr, ptr %2, align 8, !tbaa !16
  %25 = getelementptr inbounds nuw %struct.ossl_record_layer_st, ptr %24, i32 0, i32 23
  store ptr null, ptr %25, align 8, !tbaa !62
  %26 = load ptr, ptr %2, align 8, !tbaa !16
  %27 = getelementptr inbounds nuw %struct.ossl_record_layer_st, ptr %26, i32 0, i32 24
  store i64 0, ptr %27, align 8, !tbaa !63
  call void @llvm.lifetime.end.p0(i64 8, ptr %3) #10
  ret i32 1
}

; Function Attrs: nounwind uwtable
define i32 @tls_release_record(ptr noundef %0, ptr noundef %1, i64 noundef %2) #0 {
  %4 = alloca i32, align 4
  %5 = alloca ptr, align 8
  %6 = alloca ptr, align 8
  %7 = alloca i64, align 8
  %8 = alloca ptr, align 8
  %9 = alloca i32, align 4
  store ptr %0, ptr %5, align 8, !tbaa !16
  store ptr %1, ptr %6, align 8, !tbaa !41
  store i64 %2, ptr %7, align 8, !tbaa !38
  call void @llvm.lifetime.start.p0(i64 8, ptr %8) #10
  %10 = load ptr, ptr %5, align 8, !tbaa !16
  %11 = getelementptr inbounds nuw %struct.ossl_record_layer_st, ptr %10, i32 0, i32 18
  %12 = load ptr, ptr %5, align 8, !tbaa !16
  %13 = getelementptr inbounds nuw %struct.ossl_record_layer_st, ptr %12, i32 0, i32 21
  %14 = load i64, ptr %13, align 8, !tbaa !95
  %15 = getelementptr inbounds nuw [32 x %struct.tls_rl_record_st], ptr %11, i64 0, i64 %14
  store ptr %15, ptr %8, align 8, !tbaa !13
  %16 = load ptr, ptr %5, align 8, !tbaa !16
  %17 = getelementptr inbounds nuw %struct.ossl_record_layer_st, ptr %16, i32 0, i32 21
  %18 = load i64, ptr %17, align 8, !tbaa !95
  %19 = load ptr, ptr %5, align 8, !tbaa !16
  %20 = getelementptr inbounds nuw %struct.ossl_record_layer_st, ptr %19, i32 0, i32 20
  %21 = load i64, ptr %20, align 8, !tbaa !94
  %22 = icmp ult i64 %18, %21
  %23 = zext i1 %22 to i32
  %24 = icmp ne i32 %23, 0
  %25 = xor i1 %24, true
  %26 = xor i1 %25, true
  %27 = zext i1 %26 to i32
  %28 = sext i32 %27 to i64
  %29 = call i64 @llvm.expect.i64(i64 %28, i64 1)
  %30 = icmp ne i64 %29, 0
  br i1 %30, label %31, label %43

31:                                               ; preds = %3
  %32 = load ptr, ptr %6, align 8, !tbaa !41
  %33 = load ptr, ptr %8, align 8, !tbaa !13
  %34 = icmp eq ptr %32, %33
  %35 = zext i1 %34 to i32
  %36 = icmp ne i32 %35, 0
  %37 = xor i1 %36, true
  %38 = xor i1 %37, true
  %39 = zext i1 %38 to i32
  %40 = sext i32 %39 to i64
  %41 = call i64 @llvm.expect.i64(i64 %40, i64 1)
  %42 = icmp ne i64 %41, 0
  br i1 %42, label %45, label %43

43:                                               ; preds = %31, %3
  call void @ERR_new()
  call void @ERR_set_debug(ptr noundef @.str, i32 noundef 1165, ptr noundef @__func__.tls_release_record)
  %44 = load ptr, ptr %5, align 8, !tbaa !16
  call void (ptr, i32, i32, ptr, ...) @ossl_rlayer_fatal(ptr noundef %44, i32 noundef 80, i32 noundef 317, ptr noundef null)
  store i32 -2, ptr %4, align 4
  store i32 1, ptr %9, align 4
  br label %112

45:                                               ; preds = %31
  %46 = load ptr, ptr %8, align 8, !tbaa !13
  %47 = getelementptr inbounds nuw %struct.tls_rl_record_st, ptr %46, i32 0, i32 2
  %48 = load i64, ptr %47, align 8, !tbaa !82
  %49 = load i64, ptr %7, align 8, !tbaa !38
  %50 = icmp ult i64 %48, %49
  br i1 %50, label %51, label %53

51:                                               ; preds = %45
  call void @ERR_new()
  call void @ERR_set_debug(ptr noundef @.str, i32 noundef 1171, ptr noundef @__func__.tls_release_record)
  %52 = load ptr, ptr %5, align 8, !tbaa !16
  call void (ptr, i32, i32, ptr, ...) @ossl_rlayer_fatal(ptr noundef %52, i32 noundef 80, i32 noundef 786691, ptr noundef null)
  store i32 -2, ptr %4, align 4
  store i32 1, ptr %9, align 4
  br label %112

53:                                               ; preds = %45
  %54 = load ptr, ptr %5, align 8, !tbaa !16
  %55 = getelementptr inbounds nuw %struct.ossl_record_layer_st, ptr %54, i32 0, i32 12
  %56 = load i64, ptr %55, align 8, !tbaa !47
  %57 = and i64 %56, 2
  %58 = icmp ne i64 %57, 0
  br i1 %58, label %59, label %68

59:                                               ; preds = %53
  %60 = load ptr, ptr %8, align 8, !tbaa !13
  %61 = getelementptr inbounds nuw %struct.tls_rl_record_st, ptr %60, i32 0, i32 5
  %62 = load ptr, ptr %61, align 8, !tbaa !86
  %63 = load ptr, ptr %8, align 8, !tbaa !13
  %64 = getelementptr inbounds nuw %struct.tls_rl_record_st, ptr %63, i32 0, i32 4
  %65 = load i64, ptr %64, align 8, !tbaa !105
  %66 = getelementptr inbounds nuw i8, ptr %62, i64 %65
  %67 = load i64, ptr %7, align 8, !tbaa !38
  call void @OPENSSL_cleanse(ptr noundef %66, i64 noundef %67)
  br label %68

68:                                               ; preds = %59, %53
  %69 = load i64, ptr %7, align 8, !tbaa !38
  %70 = load ptr, ptr %8, align 8, !tbaa !13
  %71 = getelementptr inbounds nuw %struct.tls_rl_record_st, ptr %70, i32 0, i32 4
  %72 = load i64, ptr %71, align 8, !tbaa !105
  %73 = add i64 %72, %69
  store i64 %73, ptr %71, align 8, !tbaa !105
  %74 = load i64, ptr %7, align 8, !tbaa !38
  %75 = load ptr, ptr %8, align 8, !tbaa !13
  %76 = getelementptr inbounds nuw %struct.tls_rl_record_st, ptr %75, i32 0, i32 2
  %77 = load i64, ptr %76, align 8, !tbaa !82
  %78 = sub i64 %77, %74
  store i64 %78, ptr %76, align 8, !tbaa !82
  %79 = load ptr, ptr %8, align 8, !tbaa !13
  %80 = getelementptr inbounds nuw %struct.tls_rl_record_st, ptr %79, i32 0, i32 2
  %81 = load i64, ptr %80, align 8, !tbaa !82
  %82 = icmp ugt i64 %81, 0
  br i1 %82, label %83, label %84

83:                                               ; preds = %68
  store i32 1, ptr %4, align 4
  store i32 1, ptr %9, align 4
  br label %112

84:                                               ; preds = %68
  %85 = load ptr, ptr %5, align 8, !tbaa !16
  %86 = getelementptr inbounds nuw %struct.ossl_record_layer_st, ptr %85, i32 0, i32 21
  %87 = load i64, ptr %86, align 8, !tbaa !95
  %88 = add i64 %87, 1
  store i64 %88, ptr %86, align 8, !tbaa !95
  %89 = load ptr, ptr %5, align 8, !tbaa !16
  %90 = getelementptr inbounds nuw %struct.ossl_record_layer_st, ptr %89, i32 0, i32 20
  %91 = load i64, ptr %90, align 8, !tbaa !94
  %92 = load ptr, ptr %5, align 8, !tbaa !16
  %93 = getelementptr inbounds nuw %struct.ossl_record_layer_st, ptr %92, i32 0, i32 21
  %94 = load i64, ptr %93, align 8, !tbaa !95
  %95 = icmp eq i64 %91, %94
  br i1 %95, label %96, label %111

96:                                               ; preds = %84
  %97 = load ptr, ptr %5, align 8, !tbaa !16
  %98 = getelementptr inbounds nuw %struct.ossl_record_layer_st, ptr %97, i32 0, i32 13
  %99 = load i32, ptr %98, align 8, !tbaa !69
  %100 = and i32 %99, 16
  %101 = icmp ne i32 %100, 0
  br i1 %101, label %102, label %111

102:                                              ; preds = %96
  %103 = load ptr, ptr %5, align 8, !tbaa !16
  %104 = getelementptr inbounds nuw %struct.ossl_record_layer_st, ptr %103, i32 0, i32 17
  %105 = getelementptr inbounds nuw %struct.tls_buffer_st, ptr %104, i32 0, i32 4
  %106 = load i64, ptr %105, align 8, !tbaa !127
  %107 = icmp eq i64 %106, 0
  br i1 %107, label %108, label %111

108:                                              ; preds = %102
  %109 = load ptr, ptr %5, align 8, !tbaa !16
  %110 = call i32 @tls_release_read_buffer(ptr noundef %109)
  br label %111

111:                                              ; preds = %108, %102, %96, %84
  store i32 1, ptr %4, align 4
  store i32 1, ptr %9, align 4
  br label %112

112:                                              ; preds = %111, %83, %51, %43
  call void @llvm.lifetime.end.p0(i64 8, ptr %8) #10
  %113 = load i32, ptr %4, align 4
  ret i32 %113
}