; Function Attrs: nounwind uwtable
define range(i32 -2, 2) i32 @tls_release_record(ptr noundef captures(address) %0, ptr noundef readnone captures(address) %1, i64 noundef %2) #0 {
  %4 = getelementptr inbounds nuw i8, ptr %0, i64 1744
  %5 = getelementptr inbounds nuw i8, ptr %0, i64 4064
  %6 = load i64, ptr %5, align 8, !tbaa !96
  %7 = getelementptr inbounds nuw [32 x %struct.tls_rl_record_st], ptr %4, i64 0, i64 %6
  %8 = getelementptr inbounds nuw i8, ptr %0, i64 4056
  %9 = load i64, ptr %8, align 8, !tbaa !95
  %10 = icmp ult i64 %6, %9
  %11 = icmp eq ptr %1, %7
  %or.cond = select i1 %10, i1 %11, i1 false
  br i1 %or.cond, label %13, label %12, !prof !101

12:                                               ; preds = %3
  tail call void @ERR_new() #13
  tail call void @ERR_set_debug(ptr noundef nonnull @.str, i32 noundef 1165, ptr noundef nonnull @__func__.tls_release_record) #13
  tail call void (ptr, i32, i32, ptr, ...) @ossl_rlayer_fatal(ptr noundef nonnull %0, i32 noundef 80, i32 noundef 317, ptr noundef null)
  br label %57

13:                                               ; preds = %3
  %14 = getelementptr inbounds nuw i8, ptr %7, i64 8
  %15 = load i64, ptr %14, align 8, !tbaa !65
  %16 = icmp ult i64 %15, %2
  br i1 %16, label %17, label %18

17:                                               ; preds = %13
  tail call void @ERR_new() #13
  tail call void @ERR_set_debug(ptr noundef nonnull @.str, i32 noundef 1171, ptr noundef nonnull @__func__.tls_release_record) #13
  tail call void (ptr, i32, i32, ptr, ...) @ossl_rlayer_fatal(ptr noundef nonnull %0, i32 noundef 80, i32 noundef 786691, ptr noundef null)
  br label %57

18:                                               ; preds = %13
  %19 = getelementptr inbounds nuw i8, ptr %0, i64 80
  %20 = load i64, ptr %19, align 8, !tbaa !34
  %21 = and i64 %20, 2
  %.not = icmp eq i64 %21, 0
  br i1 %.not, label %28, label %22

22:                                               ; preds = %18
  %23 = getelementptr inbounds nuw i8, ptr %7, i64 32
  %24 = load ptr, ptr %23, align 8, !tbaa !69
  %25 = getelementptr inbounds nuw i8, ptr %7, i64 24
  %26 = load i64, ptr %25, align 8, !tbaa !85
  %27 = getelementptr inbounds nuw i8, ptr %24, i64 %26
  tail call void @OPENSSL_cleanse(ptr noundef %27, i64 noundef %2) #13
  %.pre = load i64, ptr %14, align 8, !tbaa !65
  br label %28

28:                                               ; preds = %22, %18
  %29 = phi i64 [ %.pre, %22 ], [ %15, %18 ]
  %30 = getelementptr inbounds nuw i8, ptr %7, i64 24
  %31 = load i64, ptr %30, align 8, !tbaa !85
  %32 = add i64 %31, %2
  store i64 %32, ptr %30, align 8, !tbaa !85
  %33 = sub i64 %29, %2
  store i64 %33, ptr %14, align 8, !tbaa !65
  %.not27 = icmp eq i64 %29, %2
  br i1 %.not27, label %34, label %57

34:                                               ; preds = %28
  %35 = load i64, ptr %5, align 8, !tbaa !96
  %36 = add i64 %35, 1
  store i64 %36, ptr %5, align 8, !tbaa !96
  %37 = load i64, ptr %8, align 8, !tbaa !95
  %38 = icmp eq i64 %37, %36
  br i1 %38, label %39, label %57

39:                                               ; preds = %34
  %40 = getelementptr inbounds nuw i8, ptr %0, i64 88
  %41 = load i32, ptr %40, align 8, !tbaa !54
  %42 = and i32 %41, 16
  %.not28 = icmp eq i32 %42, 0
  br i1 %.not28, label %57, label %43

43:                                               ; preds = %39
  %44 = getelementptr inbounds nuw i8, ptr %0, i64 1728
  %45 = load i64, ptr %44, align 8, !tbaa !102
  %46 = icmp eq i64 %45, 0
  br i1 %46, label %47, label %57

47:                                               ; preds = %43
  %48 = getelementptr inbounds nuw i8, ptr %0, i64 1696
  %49 = load i64, ptr %19, align 8, !tbaa !34
  %50 = and i64 %49, 2
  %.not.i = icmp eq i64 %50, 0
  br i1 %.not.i, label %tls_release_read_buffer.exit, label %51

51:                                               ; preds = %47
  %52 = load ptr, ptr %48, align 8, !tbaa !3
  %53 = getelementptr inbounds nuw i8, ptr %0, i64 1712
  %54 = load i64, ptr %53, align 8, !tbaa !37
  tail call void @OPENSSL_cleanse(ptr noundef %52, i64 noundef %54) #13
  br label %tls_release_read_buffer.exit

tls_release_read_buffer.exit:                     ; preds = %47, %51
  %55 = load ptr, ptr %48, align 8, !tbaa !3
  tail call void @CRYPTO_free(ptr noundef %55, ptr noundef nonnull @.str, i32 noundef 284) #13
  store ptr null, ptr %48, align 8, !tbaa !3
  %56 = getelementptr inbounds nuw i8, ptr %0, i64 4080
  tail call void @llvm.memset.p0.i64(ptr noundef nonnull align 8 dereferenceable(16) %56, i8 0, i64 16, i1 false)
  br label %57

57:                                               ; preds = %34, %39, %43, %tls_release_read_buffer.exit, %28, %17, %12
  %.0 = phi i32 [ -2, %17 ], [ -2, %12 ], [ 1, %28 ], [ 1, %tls_release_read_buffer.exit ], [ 1, %43 ], [ 1, %39 ], [ 1, %34 ]
  ret i32 %.0
}